target datalayout = "e-m:e-p270:32:32-p271:32:32-p272:64:64-i64:64-i128:128-f80:128-n8:16:32:64-S128"
target triple = "x86_64-pc-linux-gnu"

%struct.mi_heap_s = type { ptr, [129 x ptr], [75 x %struct.mi_page_queue_s], ptr, i64, i64, [2 x i64], %struct.mi_random_cxt_s, i64, i64, i64, ptr, i8 }
%struct.mi_page_queue_s = type { ptr, ptr, i64 }
%struct.mi_random_cxt_s = type { [16 x i32], [16 x i32], i32 }
%struct.mi_tld_s = type { i64, i8, ptr, ptr, %struct.mi_segments_tld_s, %struct.mi_os_tld_s, %struct.mi_stats_s }
%struct.mi_segments_tld_s = type { [36 x %struct.mi_span_queue_s], i64, i64, i64, i64, ptr, ptr }
%struct.mi_span_queue_s = type { ptr, ptr, i64 }
%struct.mi_os_tld_s = type { i64, ptr }
%struct.mi_stats_s = type { %struct.mi_stat_count_s, %struct.mi_stat_count_s, %struct.mi_stat_count_s, %struct.mi_stat_count_s, %struct.mi_stat_count_s, %struct.mi_stat_count_s, %struct.mi_stat_count_s, %struct.mi_stat_count_s, %struct.mi_stat_count_s, %struct.mi_stat_count_s, %struct.mi_stat_count_s, %struct.mi_stat_count_s, %struct.mi_stat_count_s, %struct.mi_stat_count_s, %struct.mi_stat_counter_s, %struct.mi_stat_counter_s, %struct.mi_stat_counter_s, %struct.mi_stat_counter_s, %struct.mi_stat_counter_s, %struct.mi_stat_counter_s, %struct.mi_stat_counter_s, %struct.mi_stat_counter_s }
%struct.mi_stat_count_s = type { i64, i64, i64, i64 }
%struct.mi_stat_counter_s = type { i64, i64 }

@_mi_heap_empty = external constant %struct.mi_heap_s, align 8
@_mi_heap_default = external thread_local(localdynamic) global ptr, align 8

; Function Attrs: inlinehint nounwind uwtable
define internal ptr @mi_get_default_heap() #1 {
  %1 = call align 8 ptr @llvm.threadlocal.address.p0(ptr align 8 @_mi_heap_default)
  %2 = load ptr, ptr %1, align 8, !tbaa !3
  ret ptr %2
}

; Function Attrs: inlinehint nounwind uwtable
define internal ptr @mi_tls_slot(i64 noundef %0) #1 {
  %2 = alloca i64, align 8
  %3 = alloca ptr, align 8
  %4 = alloca i64, align 8
  store i64 %0, ptr %2, align 8, !tbaa !32
  call void @llvm.lifetime.start.p0(i64 8, ptr %3) #9
  call void @llvm.lifetime.start.p0(i64 8, ptr %4) #9
  %5 = load i64, ptr %2, align 8, !tbaa !32
  %6 = mul i64 %5, 8
  store i64 %6, ptr %4, align 8, !tbaa !32
  %7 = load i64, ptr %4, align 8, !tbaa !32
  %8 = inttoptr i64 %7 to ptr
  %9 = call ptr asm "movq %fs:$1, $0", "=r,*m,~{dirflag},~{fpsr},~{flags}"(ptr elementtype(ptr) %8) #10, !srcloc !74
  store ptr %9, ptr %3, align 8, !tbaa !35
  %10 = load ptr, ptr %3, align 8, !tbaa !35
  call void @llvm.lifetime.end.p0(i64 8, ptr %4) #9
  call void @llvm.lifetime.end.p0(i64 8, ptr %3) #9
  ret ptr %10
}

; Function Attrs: inlinehint nounwind uwtable
define internal void @_mi_memcpy(ptr noundef %0, ptr noundef %1, i64 noundef %2) #1 {
  %4 = alloca ptr, align 8
  %5 = alloca ptr, align 8
  %6 = alloca i64, align 8
  store ptr %0, ptr %4, align 8, !tbaa !35
  store ptr %1, ptr %5, align 8, !tbaa !35
  store i64 %2, ptr %6, align 8, !tbaa !32
  %7 = load ptr, ptr %4, align 8, !tbaa !35
  %8 = load ptr, ptr %5, align 8, !tbaa !35
  %9 = load i64, ptr %6, align 8, !tbaa !32
  call void @llvm.memcpy.p0.p0.i64(ptr align 1 %7, ptr align 1 %8, i64 %9, i1 false)
  ret void
}

; Function Attrs: nounwind uwtable
define hidden ptr @mi_heap_get_default() #0 {
  call void @mi_thread_init()
  %1 = call ptr @mi_get_default_heap()
  ret ptr %1
}

; Function Attrs: nounwind uwtable
define hidden i64 @_mi_heap_random_next(ptr noundef %0) #0 {
  %2 = alloca ptr, align 8
  store ptr %0, ptr %2, align 8, !tbaa !3
  %3 = load ptr, ptr %2, align 8, !tbaa !3
  %4 = getelementptr inbounds nuw %struct.mi_heap_s, ptr %3, i32 0, i32 7
  %5 = call i64 @_mi_random_next(ptr noundef %4)
  ret i64 %5
}

; Function Attrs: inlinehint nounwind uwtable
define internal i64 @_mi_thread_id() #1 {
  %1 = call ptr @mi_tls_slot(i64 noundef 0)
  %2 = ptrtoint ptr %1 to i64
  ret i64 %2
}

; Function Attrs: inlinehint nounwind uwtable
define internal void @_mi_memcpy_aligned(ptr noundef %0, ptr noundef %1, i64 noundef %2) #1 {
  %4 = alloca ptr, align 8
  %5 = alloca ptr, align 8
  %6 = alloca i64, align 8
  %7 = alloca ptr, align 8
  %8 = alloca ptr, align 8
  store ptr %0, ptr %4, align 8, !tbaa !35
  store ptr %1, ptr %5, align 8, !tbaa !35
  store i64 %2, ptr %6, align 8, !tbaa !32
  call void @llvm.lifetime.start.p0(i64 8, ptr %7) #9
  %9 = load ptr, ptr %4, align 8, !tbaa !35
  call void @llvm.assume(i1 true) [ "align"(ptr %9, i64 8) ]
  store ptr %9, ptr %7, align 8, !tbaa !35
  call void @llvm.lifetime.start.p0(i64 8, ptr %8) #9
  %10 = load ptr, ptr %5, align 8, !tbaa !35
  call void @llvm.assume(i1 true) [ "align"(ptr %10, i64 8) ]
  store ptr %10, ptr %8, align 8, !tbaa !35
  %11 = load ptr, ptr %7, align 8, !tbaa !35
  %12 = load ptr, ptr %8, align 8, !tbaa !35
  %13 = load i64, ptr %6, align 8, !tbaa !32
  call void @_mi_memcpy(ptr noundef %11, ptr noundef %12, i64 noundef %13)
  call void @llvm.lifetime.end.p0(i64 8, ptr %8) #9
  call void @llvm.lifetime.end.p0(i64 8, ptr %7) #9
  ret void
}

; Function Attrs: nounwind uwtable
define hidden ptr @mi_heap_get_backing() #0 {
  %1 = alloca ptr, align 8
  %2 = alloca ptr, align 8
  call void @llvm.lifetime.start.p0(i64 8, ptr %1) #9
  %3 = call ptr @mi_heap_get_default()
  store ptr %3, ptr %1, align 8, !tbaa !3
  call void @llvm.lifetime.start.p0(i64 8, ptr %2) #9
  %4 = load ptr, ptr %1, align 8, !tbaa !3
  %5 = getelementptr inbounds nuw %struct.mi_heap_s, ptr %4, i32 0, i32 0
  %6 = load ptr, ptr %5, align 8, !tbaa !19
  %7 = getelementptr inbounds nuw %struct.mi_tld_s, ptr %6, i32 0, i32 2
  %8 = load ptr, ptr %7, align 8, !tbaa !20
  store ptr %8, ptr %2, align 8, !tbaa !3
  %9 = load ptr, ptr %2, align 8, !tbaa !3
  call void @llvm.lifetime.end.p0(i64 8, ptr %2) #9
  call void @llvm.lifetime.end.p0(i64 8, ptr %1) #9
  ret ptr %9
}

; Function Attrs: nounwind uwtable
define hidden ptr @mi_heap_new() #0 {
  %1 = alloca ptr, align 8
  %2 = alloca ptr, align 8
  %3 = alloca ptr, align 8
  %4 = alloca i32, align 4
  call void @llvm.lifetime.start.p0(i64 8, ptr %2) #9
  %5 = call ptr @mi_heap_get_backing()
  store ptr %5, ptr %2, align 8, !tbaa !3
  call void @llvm.lifetime.start.p0(i64 8, ptr %3) #9
  %6 = load ptr, ptr %2, align 8, !tbaa !3
  %7 = call noalias ptr @mi_heap_malloc(ptr noundef %6, i64 noundef 3056)
  store ptr %7, ptr %3, align 8, !tbaa !3
  %8 = load ptr, ptr %3, align 8, !tbaa !3
  %9 = icmp eq ptr %8, null
  br i1 %9, label %10, label %11

10:                                               ; preds = %0
  store ptr null, ptr %1, align 8
  store i32 1, ptr %4, align 4
  br label %55

11:                                               ; preds = %0
  %12 = load ptr, ptr %3, align 8, !tbaa !3
  call void @_mi_memcpy_aligned(ptr noundef %12, ptr noundef @_mi_heap_empty, i64 noundef 3056)
  %13 = load ptr, ptr %2, align 8, !tbaa !3
  %14 = getelementptr inbounds nuw %struct.mi_heap_s, ptr %13, i32 0, i32 0
  %15 = load ptr, ptr %14, align 8, !tbaa !19
  %16 = load ptr, ptr %3, align 8, !tbaa !3
  %17 = getelementptr inbounds nuw %struct.mi_heap_s, ptr %16, i32 0, i32 0
  store ptr %15, ptr %17, align 8, !tbaa !19
  %18 = call i64 @_mi_thread_id()
  %19 = load ptr, ptr %3, align 8, !tbaa !3
  %20 = getelementptr inbounds nuw %struct.mi_heap_s, ptr %19, i32 0, i32 4
  store i64 %18, ptr %20, align 8, !tbaa !30
  %21 = load ptr, ptr %2, align 8, !tbaa !3
  %22 = getelementptr inbounds nuw %struct.mi_heap_s, ptr %21, i32 0, i32 7
  %23 = load ptr, ptr %3, align 8, !tbaa !3
  %24 = getelementptr inbounds nuw %struct.mi_heap_s, ptr %23, i32 0, i32 7
  call void @_mi_random_split(ptr noundef %22, ptr noundef %24)
  %25 = load ptr, ptr %3, align 8, !tbaa !3
  %26 = call i64 @_mi_heap_random_next(ptr noundef %25)
  %27 = or i64 %26, 1
  %28 = load ptr, ptr %3, align 8, !tbaa !3
  %29 = getelementptr inbounds nuw %struct.mi_heap_s, ptr %28, i32 0, i32 5
  store i64 %27, ptr %29, align 8, !tbaa !31
  %30 = load ptr, ptr %3, align 8, !tbaa !3
  %31 = call i64 @_mi_heap_random_next(ptr noundef %30)
  %32 = load ptr, ptr %3, align 8, !tbaa !3
  %33 = getelementptr inbounds nuw %struct.mi_heap_s, ptr %32, i32 0, i32 6
  %34 = getelementptr inbounds [2 x i64], ptr %33, i64 0, i64 0
  store i64 %31, ptr %34, align 8, !tbaa !32
  %35 = load ptr, ptr %3, align 8, !tbaa !3
  %36 = call i64 @_mi_heap_random_next(ptr noundef %35)
  %37 = load ptr, ptr %3, align 8, !tbaa !3
  %38 = getelementptr inbounds nuw %struct.mi_heap_s, ptr %37, i32 0, i32 6
  %39 = getelementptr inbounds [2 x i64], ptr %38, i64 0, i64 1
  store i64 %36, ptr %39, align 8, !tbaa !32
  %40 = load ptr, ptr %3, align 8, !tbaa !3
  %41 = getelementptr inbounds nuw %struct.mi_heap_s, ptr %40, i32 0, i32 12
  store i8 1, ptr %41, align 8, !tbaa !14
  %42 = load ptr, ptr %3, align 8, !tbaa !3
  %43 = getelementptr inbounds nuw %struct.mi_heap_s, ptr %42, i32 0, i32 0
  %44 = load ptr, ptr %43, align 8, !tbaa !19
  %45 = getelementptr inbounds nuw %struct.mi_tld_s, ptr %44, i32 0, i32 3
  %46 = load ptr, ptr %45, align 8, !tbaa !33
  %47 = load ptr, ptr %3, align 8, !tbaa !3
  %48 = getelementptr inbounds nuw %struct.mi_heap_s, ptr %47, i32 0, i32 11
  store ptr %46, ptr %48, align 8, !tbaa !34
  %49 = load ptr, ptr %3, align 8, !tbaa !3
  %50 = load ptr, ptr %3, align 8, !tbaa !3
  %51 = getelementptr inbounds nuw %struct.mi_heap_s, ptr %50, i32 0, i32 0
  %52 = load ptr, ptr %51, align 8, !tbaa !19
  %53 = getelementptr inbounds nuw %struct.mi_tld_s, ptr %52, i32 0, i32 3
  store ptr %49, ptr %53, align 8, !tbaa !33
  %54 = load ptr, ptr %3, align 8, !tbaa !3
  store ptr %54, ptr %1, align 8
  store i32 1, ptr %4, align 4
  br label %55

55:                                               ; preds = %11, %10
  call void @llvm.lifetime.end.p0(i64 8, ptr %3) #9
  call void @llvm.lifetime.end.p0(i64 8, ptr %2) #9
  %56 = load ptr, ptr %1, align 8
  ret ptr %56
}