; Function Attrs: nounwind uwtable
define hidden ptr @mi_heap_new() local_unnamed_addr #0 {
  tail call void @mi_thread_init() #8
  %1 = tail call align 8 ptr @llvm.threadlocal.address.p0(ptr align 8 @_mi_heap_default)
  %2 = load ptr, ptr %1, align 8, !tbaa !39
  %3 = load ptr, ptr %2, align 8, !tbaa !3
  %4 = getelementptr inbounds nuw i8, ptr %3, i64 16
  %5 = load ptr, ptr %4, align 8, !tbaa !14
  %6 = tail call noalias ptr @mi_heap_malloc(ptr noundef %5, i64 noundef 3056) #8
  %7 = icmp eq ptr %6, null
  br i1 %7, label %27, label %8

8:                                                ; preds = %0
  call void @llvm.assume(i1 true) [ "align"(ptr %6, i64 8) ]
  call void @llvm.assume(i1 true) [ "align"(ptr @_mi_heap_empty, i64 8) ]
  tail call void @llvm.memcpy.p0.p0.i64(ptr noundef nonnull align 8 dereferenceable(3056) %6, ptr noundef nonnull readonly align 8 dereferenceable(3056) @_mi_heap_empty, i64 range(i64 1800, 3057) 3056, i1 false)
  %9 = load ptr, ptr %5, align 8, !tbaa !3
  store ptr %9, ptr %6, align 8, !tbaa !3
  %10 = tail call ptr asm "movq %fs:$1, $0", "=r,*m,~{dirflag},~{fpsr},~{flags}"(ptr elementtype(ptr) null) #9, !srcloc !40
  %11 = ptrtoint ptr %10 to i64
  %12 = getelementptr inbounds nuw i8, ptr %6, i64 2848
  store i64 %11, ptr %12, align 8, !tbaa !41
  %13 = getelementptr inbounds nuw i8, ptr %5, i64 2880
  %14 = getelementptr inbounds nuw i8, ptr %6, i64 2880
  tail call void @_mi_random_split(ptr noundef nonnull %13, ptr noundef nonnull %14) #8
  %15 = tail call i64 @_mi_random_next(ptr noundef nonnull %14) #8
  %16 = or i64 %15, 1
  %17 = getelementptr inbounds nuw i8, ptr %6, i64 2856
  store i64 %16, ptr %17, align 8, !tbaa !42
  %18 = tail call i64 @_mi_random_next(ptr noundef nonnull %14) #8
  %19 = getelementptr inbounds nuw i8, ptr %6, i64 2864
  store i64 %18, ptr %19, align 8, !tbaa !43
  %20 = tail call i64 @_mi_random_next(ptr noundef nonnull %14) #8
  %21 = getelementptr inbounds nuw i8, ptr %6, i64 2872
  store i64 %20, ptr %21, align 8, !tbaa !43
  %22 = getelementptr inbounds nuw i8, ptr %6, i64 3048
  store i8 1, ptr %22, align 8, !tbaa !24
  %23 = load ptr, ptr %6, align 8, !tbaa !3
  %24 = getelementptr inbounds nuw i8, ptr %23, i64 24
  %25 = load ptr, ptr %24, align 8, !tbaa !44
  %26 = getelementptr inbounds nuw i8, ptr %6, i64 3040
  store ptr %25, ptr %26, align 8, !tbaa !45
  store ptr %6, ptr %24, align 8, !tbaa !44
  br label %27

27:                                               ; preds = %0, %8
  ret ptr %6
}